target datalayout = "e-m:e-p270:32:32-p271:32:32-p272:64:64-i64:64-i128:128-f80:128-n8:16:32:64-S128"
target triple = "x86_64-pc-linux-gnu"

%struct._zval_struct = type { %union._zend_value, %union.anon.3, %union.anon.6 }
%union._zend_value = type { i64 }
%union.anon.3 = type { i32 }
%union.anon.6 = type { i32 }
%struct._phar_metadata_tracker = type { %struct._zval_struct, ptr }
%struct._phar_entry_info = type { i32, i32, i32, i32, i32, i32, %struct._phar_metadata_tracker, i32, ptr, i32, i64, i64, i64, ptr, ptr, i32, ptr, ptr, ptr, i8, i32, i16, i16 }

; Function Attrs: nounwind uwtable
define internal i32 @phar_tmpclose_apply(ptr noundef %0) #0 {
  %2 = alloca i32, align 4
  %3 = alloca ptr, align 8
  %4 = alloca ptr, align 8
  store ptr %0, ptr %3, align 8
  %5 = load ptr, ptr %3, align 8
  %6 = getelementptr inbounds %struct._zval_struct, ptr %5, i32 0, i32 0
  %7 = load ptr, ptr %6, align 8
  store ptr %7, ptr %4, align 8
  %8 = load ptr, ptr %4, align 8
  %9 = getelementptr inbounds %struct._phar_entry_info, ptr %8, i32 0, i32 9
  %10 = load i32, ptr %9, align 8
  %11 = icmp ne i32 %10, 3
  br i1 %11, label %12, label %13

12:                                               ; preds = %1
  store i32 0, ptr %2, align 4
  br label %31

13:                                               ; preds = %1
  %14 = load ptr, ptr %4, align 8
  %15 = getelementptr inbounds %struct._phar_entry_info, ptr %14, i32 0, i32 13
  %16 = load ptr, ptr %15, align 8
  %17 = icmp ne ptr %16, null
  br i1 %17, label %18, label %30

18:                                               ; preds = %13
  %19 = load ptr, ptr %4, align 8
  %20 = getelementptr inbounds %struct._phar_entry_info, ptr %19, i32 0, i32 15
  %21 = load i32, ptr %20, align 8
  %22 = icmp ne i32 %21, 0
  br i1 %22, label %30, label %23

23:                                               ; preds = %18
  %24 = load ptr, ptr %4, align 8
  %25 = getelementptr inbounds %struct._phar_entry_info, ptr %24, i32 0, i32 13
  %26 = load ptr, ptr %25, align 8
  %27 = call i32 @_php_stream_free(ptr noundef %26, i32 noundef 3)
  %28 = load ptr, ptr %4, align 8
  %29 = getelementptr inbounds %struct._phar_entry_info, ptr %28, i32 0, i32 13
  store ptr null, ptr %29, align 8
  br label %30

30:                                               ; preds = %23, %18, %13
  store i32 0, ptr %2, align 4
  br label %31

31:                                               ; preds = %30, %12
  %32 = load i32, ptr %2, align 4
  ret i32 %32
}