; Function Attrs: nounwind uwtable
define internal noundef i32 @phar_tmpclose_apply(ptr nocapture noundef readonly %0) #0 {
  %2 = load ptr, ptr %0, align 8
  %3 = getelementptr inbounds i8, ptr %2, i64 64
  %4 = load i32, ptr %3, align 8
  %.not = icmp eq i32 %4, 3
  br i1 %.not, label %5, label %13

5:                                                ; preds = %1
  %6 = getelementptr inbounds i8, ptr %2, i64 96
  %7 = load ptr, ptr %6, align 8
  %.not6 = icmp eq ptr %7, null
  br i1 %.not6, label %13, label %8

8:                                                ; preds = %5
  %9 = getelementptr inbounds i8, ptr %2, i64 112
  %10 = load i32, ptr %9, align 8
  %.not7 = icmp eq i32 %10, 0
  br i1 %.not7, label %11, label %13

11:                                               ; preds = %8
  %12 = tail call i32 @_php_stream_free(ptr noundef nonnull %7, i32 noundef 3) #23
  store ptr null, ptr %6, align 8
  br label %13

13:                                               ; preds = %5, %8, %11, %1
  ret i32 0
}